; Function Attrs: nounwind uwtable
define range(i32 0, 2) i32 @ssl_decapsulate(ptr noundef %0, ptr noundef %1, ptr noundef %2, i64 noundef %3, i32 noundef %4) local_unnamed_addr #4 {
  %6 = alloca i64, align 8
  call void @llvm.lifetime.start.p0(i64 8, ptr nonnull %6) #18
  store i64 0, ptr %6, align 8, !tbaa !198
  %7 = icmp eq ptr %1, null
  br i1 %7, label %8, label %9

8:                                                ; preds = %5
  tail call void @ERR_new() #18
  tail call void @ERR_set_debug(ptr noundef nonnull @.str.2, i32 noundef 5068, ptr noundef nonnull @__func__.ssl_decapsulate) #18
  tail call void (ptr, i32, i32, ptr, ...) @ossl_statem_fatal(ptr noundef %0, i32 noundef 80, i32 noundef 786691, ptr noundef null) #18
  br label %62

9:                                                ; preds = %5
  %10 = getelementptr inbounds nuw i8, ptr %0, i64 8
  %11 = load ptr, ptr %10, align 8, !tbaa !222
  %12 = load ptr, ptr %11, align 8, !tbaa !235
  %13 = getelementptr inbounds nuw i8, ptr %11, i64 1152
  %14 = load ptr, ptr %13, align 8, !tbaa !239
  %15 = tail call ptr @EVP_PKEY_CTX_new_from_pkey(ptr noundef %12, ptr noundef nonnull %1, ptr noundef %14) #18
  %16 = tail call i32 @EVP_PKEY_decapsulate_init(ptr noundef %15, ptr noundef null) #18
  %17 = icmp slt i32 %16, 1
  br i1 %17, label %21, label %18

18:                                               ; preds = %9
  %19 = call i32 @EVP_PKEY_decapsulate(ptr noundef %15, ptr noundef null, ptr noundef nonnull %6, ptr noundef %2, i64 noundef %3) #18
  %20 = icmp slt i32 %19, 1
  br i1 %20, label %21, label %22

21:                                               ; preds = %18, %9
  call void @ERR_new() #18
  call void @ERR_set_debug(ptr noundef nonnull @.str.2, i32 noundef 5076, ptr noundef nonnull @__func__.ssl_decapsulate) #18
  call void (ptr, i32, i32, ptr, ...) @ossl_statem_fatal(ptr noundef nonnull %0, i32 noundef 80, i32 noundef 786691, ptr noundef null) #18
  br label %ssl_gensecret.exit

22:                                               ; preds = %18
  %23 = load i64, ptr %6, align 8, !tbaa !198
  %24 = call noalias ptr @CRYPTO_malloc(i64 noundef %23, ptr noundef nonnull @.str.2, i32 noundef 5080) #18
  %25 = icmp eq ptr %24, null
  br i1 %25, label %26, label %27

26:                                               ; preds = %22
  call void @ERR_new() #18
  call void @ERR_set_debug(ptr noundef nonnull @.str.2, i32 noundef 5082, ptr noundef nonnull @__func__.ssl_decapsulate) #18
  call void (ptr, i32, i32, ptr, ...) @ossl_statem_fatal(ptr noundef nonnull %0, i32 noundef 80, i32 noundef 524303, ptr noundef null) #18
  br label %ssl_gensecret.exit

27:                                               ; preds = %22
  %28 = call i32 @EVP_PKEY_decapsulate(ptr noundef %15, ptr noundef nonnull %24, ptr noundef nonnull %6, ptr noundef %2, i64 noundef %3) #18
  %29 = icmp slt i32 %28, 1
  br i1 %29, label %30, label %31

30:                                               ; preds = %27
  call void @ERR_new() #18
  call void @ERR_set_debug(ptr noundef nonnull @.str.2, i32 noundef 5087, ptr noundef nonnull @__func__.ssl_decapsulate) #18
  call void (ptr, i32, i32, ptr, ...) @ossl_statem_fatal(ptr noundef nonnull %0, i32 noundef 80, i32 noundef 786691, ptr noundef null) #18
  br label %ssl_gensecret.exit

31:                                               ; preds = %27
  %.not = icmp eq i32 %4, 0
  br i1 %.not, label %57, label %32

32:                                               ; preds = %31
  %33 = load i64, ptr %6, align 8, !tbaa !198
  %34 = getelementptr inbounds nuw i8, ptr %0, i64 24
  %35 = load ptr, ptr %34, align 8, !tbaa !133
  %36 = getelementptr inbounds nuw i8, ptr %35, i64 216
  %37 = load ptr, ptr %36, align 8, !tbaa !134
  %38 = getelementptr inbounds nuw i8, ptr %37, i64 80
  %39 = load i32, ptr %38, align 8, !tbaa !135
  %40 = and i32 %39, 8
  %.not.i = icmp eq i32 %40, 0
  br i1 %.not.i, label %41, label %55

41:                                               ; preds = %32
  %42 = load i32, ptr %35, align 8, !tbaa !137
  %43 = icmp slt i32 %42, 772
  %.not15.i = icmp eq i32 %42, 65536
  %or.cond.i = or i1 %43, %.not15.i
  br i1 %or.cond.i, label %55, label %44

44:                                               ; preds = %41
  %45 = getelementptr inbounds nuw i8, ptr %0, i64 1288
  %46 = load i32, ptr %45, align 8, !tbaa !242
  %.not16.i = icmp eq i32 %46, 0
  br i1 %.not16.i, label %47, label %.critedge.i

47:                                               ; preds = %44
  %48 = call ptr @ssl_handshake_md(ptr noundef nonnull %0) #18
  %49 = getelementptr inbounds nuw i8, ptr %0, i64 1404
  %50 = call i32 @tls13_generate_secret(ptr noundef nonnull %0, ptr noundef %48, ptr noundef null, ptr noundef null, i64 noundef 0, ptr noundef nonnull %49) #18
  %51 = icmp eq i32 %50, 0
  br i1 %51, label %ssl_gensecret.exit, label %.critedge.i

.critedge.i:                                      ; preds = %47, %44
  %52 = call i32 @tls13_generate_handshake_secret(ptr noundef nonnull %0, ptr noundef nonnull %24, i64 noundef %33) #18
  %53 = icmp ne i32 %52, 0
  %54 = zext i1 %53 to i32
  br label %ssl_gensecret.exit

55:                                               ; preds = %41, %32
  %56 = call i32 @ssl_generate_master_secret(ptr noundef nonnull %0, ptr noundef nonnull %24, i64 noundef %33, i32 noundef 0)
  br label %ssl_gensecret.exit

57:                                               ; preds = %31
  %58 = getelementptr inbounds nuw i8, ptr %0, i64 944
  store ptr %24, ptr %58, align 8, !tbaa !86
  %59 = load i64, ptr %6, align 8, !tbaa !198
  %60 = getelementptr inbounds nuw i8, ptr %0, i64 952
  store i64 %59, ptr %60, align 8, !tbaa !87
  br label %ssl_gensecret.exit

ssl_gensecret.exit:                               ; preds = %55, %.critedge.i, %47, %57, %30, %26, %21
  %.028 = phi ptr [ null, %21 ], [ null, %26 ], [ %24, %30 ], [ null, %57 ], [ %24, %47 ], [ %24, %.critedge.i ], [ %24, %55 ]
  %.027 = phi i32 [ 0, %21 ], [ 0, %26 ], [ 0, %30 ], [ 1, %57 ], [ 0, %47 ], [ %54, %.critedge.i ], [ %56, %55 ]
  %61 = load i64, ptr %6, align 8, !tbaa !198
  call void @CRYPTO_clear_free(ptr noundef %.028, i64 noundef %61, ptr noundef nonnull @.str.2, i32 noundef 5103) #18
  call void @EVP_PKEY_CTX_free(ptr noundef %15) #18
  br label %62

62:                                               ; preds = %ssl_gensecret.exit, %8
  %.0 = phi i32 [ 0, %8 ], [ %.027, %ssl_gensecret.exit ]
  call void @llvm.lifetime.end.p0(i64 8, ptr nonnull %6) #18
  ret i32 %.0
}